Certificate:
    Data:
        Version: 3 (0x2)
        Serial Number: 1 (0x1)
    Signature Algorithm: sha1WithRSAEncryption
        Issuer: C=FR, ST=Radius, L=Somewhere, O=Example Inc./emailAddress=admin@example.com, CN=Example Certificate Authority
        Validity
            Not Before: Jul  2 05:35:19 2015 GMT
            Not After : Aug 31 05:35:19 2015 GMT
        Subject: C=FR, ST=Radius, O=Example Inc., CN=Example Server Certificate/emailAddress=admin@example.com
        Subject Public Key Info:
            Public Key Algorithm: rsaEncryption
                Public-Key: (2048 bit)
                Modulus:
                    00:b8:1d:f0:e9:e5:98:02:b2:a3:0e:15:4f:44:fc:
                    ee:6e:01:b5:94:ac:e8:8c:5b:5b:30:08:69:cd:d9:
                    6e:5e:96:63:f5:d2:70:2a:64:e9:37:3a:73:73:ac:
                    d5:96:76:ed:7e:b9:22:05:78:8a:80:cd:7b:f1:8e:
                    d4:c0:d6:64:5c:1f:74:36:ac:e0:9e:24:aa:ec:70:
                    4c:a7:dd:6b:f7:dc:f9:0a:b8:5a:79:cc:87:3b:19:
                    af:26:a1:7c:11:75:c5:7f:96:c9:37:c7:e9:08:88:
                    41:0e:71:d1:b1:ac:86:4f:3a:78:4c:76:3d:9c:49:
                    a2:f9:e2:aa:dc:39:b8:ae:42:a3:4c:df:81:bb:be:
                    ae:48:06:77:75:93:2f:f4:a8:66:90:76:14:bf:2e:
                    44:f2:58:07:86:7f:fb:c4:b2:79:8c:6d:9b:09:0a:
                    11:18:98:49:34:0d:74:26:ae:36:d1:b9:a4:12:93:
                    3f:c6:3f:7d:73:b7:cf:89:e7:63:24:86:39:76:53:
                    dd:34:60:c2:02:e5:bd:c5:44:2b:ee:9c:b5:ff:fd:
                    a6:77:6c:d0:3c:c8:1d:90:78:1e:0e:02:89:13:89:
                    27:31:8b:7c:6f:d4:4d:a1:88:ab:62:39:17:b7:b3:
                    3d:2a:02:5e:11:a6:5c:bd:d2:61:36:32:4f:44:50:
                    0d:87
                Exponent: 65537 (0x10001)
        X509v3 extensions:
            X509v3 Extended Key Usage: 
                TLS Web Server Authentication
    Signature Algorithm: sha1WithRSAEncryption
         81:4b:00:05:aa:bb:d0:5c:52:cd:a2:f0:9d:94:8f:53:bf:f8:
         19:b5:37:82:18:f9:74:6f:a4:c6:ef:67:72:c1:f8:d7:e9:61:
         16:1e:8a:4b:f7:c4:41:50:2f:51:1d:a3:1c:66:d8:0c:4d:9e:
         42:4f:88:56:99:e4:12:11:a6:20:5c:30:c7:9d:0c:ce:60:c2:
         6d:d7:af:56:7a:34:eb:96:7a:56:e9:fc:1a:fa:12:83:07:5a:
         d2:17:c8:4c:08:91:26:07:5e:15:98:fe:65:f4:8b:e6:f5:66:
         8d:c8:d6:b0:ab:1f:b4:83:64:87:c1:74:9b:54:af:28:a8:53:
         d4:33:2c:43:6d:38:ba:35:e8:64:c2:65:6b:d6:d9:09:22:de:
         50:52:1a:ec:3b:d0:50:95:6a:f6:1e:fa:5a:6d:28:c8:65:64:
         ac:d3:ea:9f:e9:f9:1d:10:c4:55:32:c4:24:db:86:da:45:36:
         c8:e2:48:d4:0e:e6:e4:f1:b8:21:cf:69:95:f2:3e:36:4f:3a:
         7b:7d:30:6d:c3:09:a4:60:c0:a3:dd:e5:69:87:76:e0:a4:44:
         cc:96:81:69:de:06:be:64:f2:9c:f9:28:43:01:8f:e0:9b:db:
         5a:16:19:80:1c:a9:86:be:fd:ab:f0:d6:86:f8:ea:17:73:20:
         51:25:64:bb
-----BEGIN CERTIFICATE-----
MIIDojCCAoqgAwIBAgIBATANBgkqhkiG9w0BAQUFADCBkzELMAkGA1UEBhMCRlIx
DzANBgNVBAgTBlJhZGl1czESMBAGA1UEBxMJU29tZXdoZXJlMRUwEwYDVQQKEwxF
eGFtcGxlIEluYy4xIDAeBgkqhkiG9w0BCQEWEWFkbWluQGV4YW1wbGUuY29tMSYw
JAYDVQQDEx1FeGFtcGxlIENlcnRpZmljYXRlIEF1dGhvcml0eTAeFw0xNTA3MDIw
NTM1MTlaFw0xNTA4MzEwNTM1MTlaMHwxCzAJBgNVBAYTAkZSMQ8wDQYDVQQIEwZS
YWRpdXMxFTATBgNVBAoTDEV4YW1wbGUgSW5jLjEjMCEGA1UEAxMaRXhhbXBsZSBT
ZXJ2ZXIgQ2VydGlmaWNhdGUxIDAeBgkqhkiG9w0BCQEWEWFkbWluQGV4YW1wbGUu
Y29tMIIBIjANBgkqhkiG9w0BAQEFAAOCAQ8AMIIBCgKCAQEAuB3w6eWYArKjDhVP
RPzubgG1lKzojFtbMAhpzdluXpZj9dJwKmTpNzpzc6zVlnbtfrkiBXiKgM178Y7U
wNZkXB90NqzgniSq7HBMp91r99z5CrhaecyHOxmvJqF8EXXFf5bJN8fpCIhBDnHR
sayGTzp4THY9nEmi+eKq3Dm4rkKjTN+Bu76uSAZ3dZMv9KhmkHYUvy5E8lgHhn/7
xLJ5jG2bCQoRGJhJNA10Jq420bmkEpM/xj99c7fPiedjJIY5dlPdNGDCAuW9xUQr
7py1//2md2zQPMgdkHgeDgKJE4knMYt8b9RNoYirYjkXt7M9KgJeEaZcvdJhNjJP
RFANhwIDAQABoxcwFTATBgNVHSUEDDAKBggrBgEFBQcDATANBgkqhkiG9w0BAQUF
AAOCAQEAgUsABaq70FxSzaLwnZSPU7/4GbU3ghj5dG+kxu9ncsH41+lhFh6KS/fE
QVAvUR2jHGbYDE2eQk+IVpnkEhGmIFwwx50MzmDCbdevVno065Z6Vun8GvoSgwda
0hfITAiRJgdeFZj+ZfSL5vVmjcjWsKsftINkh8F0m1SvKKhT1DMsQ204ujXoZMJl
a9bZCSLeUFIa7DvQUJVq9h76Wm0oyGVkrNPqn+n5HRDEVTLEJNuG2kU2yOJI1A7m
5PG4Ic9plfI+Nk86e30wbcMJpGDAo93laYd24KREzJaBad4GvmTynPkoQwGP4Jvb
WhYZgByphr79q/DWhvjqF3MgUSVkuw==
-----END CERTIFICATE-----
